; Function Attrs: mustprogress uwtable
define void @_ZNK32pxrInternal_v0_24__pxrReserved__17SdfVariantSetSpec12GetNameTokenEv(ptr dead_on_unwind noalias nocapture writable writeonly sret(%"class.pxrInternal_v0_24__pxrReserved__::TfToken") align 8 %0, ptr noundef nonnull align 8 dereferenceable(8) %1) local_unnamed_addr #0 align 2 personality ptr @__gxx_personality_v0 {
  %3 = alloca %"class.pxrInternal_v0_24__pxrReserved__::SdfPath", align 4
  call void @_ZNK32pxrInternal_v0_24__pxrReserved__7SdfSpec7GetPathEv(ptr dead_on_unwind nonnull writable sret(%"class.pxrInternal_v0_24__pxrReserved__::SdfPath") align 4 %3, ptr noundef nonnull align 8 dereferenceable(8) %1)
  %4 = invoke noundef nonnull align 8 dereferenceable(8) ptr @_ZNK32pxrInternal_v0_24__pxrReserved__7SdfPath12GetNameTokenEv(ptr noundef nonnull align 4 dereferenceable(8) %3)
          to label %5 unwind label %32

5:                                                ; preds = %2
  %6 = load i64, ptr %4, align 8
  store i64 %6, ptr %0, align 8
  %7 = and i64 %6, 7
  %.not.i.i = icmp eq i64 %7, 0
  br i1 %.not.i.i, label %_ZN32pxrInternal_v0_24__pxrReserved__7TfTokenC2ERKS0_.exit, label %8

8:                                                ; preds = %5
  %9 = and i64 %6, -8
  %10 = inttoptr i64 %9 to ptr
  %11 = atomicrmw add ptr %10, i32 2 monotonic, align 4
  %12 = and i32 %11, 1
  %.not1.i.i = icmp eq i32 %12, 0
  br i1 %.not1.i.i, label %13, label %_ZN32pxrInternal_v0_24__pxrReserved__7TfTokenC2ERKS0_.exit

13:                                               ; preds = %8
  store ptr %10, ptr %0, align 8
  br label %_ZN32pxrInternal_v0_24__pxrReserved__7TfTokenC2ERKS0_.exit

_ZN32pxrInternal_v0_24__pxrReserved__7TfTokenC2ERKS0_.exit: ; preds = %5, %8, %13
  %14 = load i32, ptr %3, align 4
  %.not.i.i2 = icmp eq i32 %14, 0
  br i1 %.not.i.i2, label %_ZN32pxrInternal_v0_24__pxrReserved__7SdfPathD2Ev.exit, label %15

15:                                               ; preds = %_ZN32pxrInternal_v0_24__pxrReserved__7TfTokenC2ERKS0_.exit
  %16 = and i32 %14, 255
  %17 = lshr i32 %14, 8
  %18 = zext nneg i32 %16 to i64
  %19 = getelementptr inbounds [257 x ptr], ptr @_ZN32pxrInternal_v0_24__pxrReserved__8Sdf_PoolINS_15Sdf_PathPrimTagELj24ELj8ELj16384EE13_regionStartsE, i64 0, i64 %18
  %20 = load ptr, ptr %19, align 8
  %21 = mul nuw nsw i32 %17, 24
  %22 = zext nneg i32 %21 to i64
  %23 = getelementptr inbounds i8, ptr %20, i64 %22
  %24 = getelementptr inbounds nuw i8, ptr %23, i64 8
  %25 = atomicrmw sub ptr %24, i32 1 seq_cst, align 4
  %26 = and i32 %25, 2147483647
  %27 = icmp eq i32 %26, 1
  br i1 %27, label %28, label %_ZN32pxrInternal_v0_24__pxrReserved__7SdfPathD2Ev.exit

28:                                               ; preds = %15
  invoke void @_ZNK32pxrInternal_v0_24__pxrReserved__12Sdf_PathNode8_DestroyEv(ptr noundef nonnull align 8 dereferenceable(16) %23)
          to label %_ZN32pxrInternal_v0_24__pxrReserved__7SdfPathD2Ev.exit unwind label %29

29:                                               ; preds = %28
  %30 = landingpad { ptr, i32 }
          catch ptr null
  %31 = extractvalue { ptr, i32 } %30, 0
  call void @__clang_call_terminate(ptr %31) #16
  unreachable

_ZN32pxrInternal_v0_24__pxrReserved__7SdfPathD2Ev.exit: ; preds = %_ZN32pxrInternal_v0_24__pxrReserved__7TfTokenC2ERKS0_.exit, %15, %28
  ret void

32:                                               ; preds = %2
  %33 = landingpad { ptr, i32 }
          cleanup
  call void @_ZN32pxrInternal_v0_24__pxrReserved__7SdfPathD2Ev(ptr noundef nonnull align 4 dereferenceable(8) %3) #15
  resume { ptr, i32 } %33
}